target datalayout = "e-m:e-p270:32:32-p271:32:32-p272:64:64-i64:64-i128:128-f80:128-n8:16:32:64-S128"
target triple = "x86_64-pc-linux-gnu"

%struct.Curves16Data = type { ptr, i32, i32, ptr }

; Function Attrs: nounwind uwtable
define internal void @FastEvaluateCurves16(ptr noundef %0, ptr noundef %1, ptr noundef %2) #0 {
  %4 = alloca ptr, align 8
  %5 = alloca ptr, align 8
  %6 = alloca ptr, align 8
  %7 = alloca ptr, align 8
  %8 = alloca i32, align 4
  store ptr %0, ptr %4, align 8
  store ptr %1, ptr %5, align 8
  store ptr %2, ptr %6, align 8
  %9 = load ptr, ptr %6, align 8
  store ptr %9, ptr %7, align 8
  store i32 0, ptr %8, align 4
  br label %10

10:                                               ; preds = %36, %3
  %11 = load i32, ptr %8, align 4
  %12 = load ptr, ptr %7, align 8
  %13 = getelementptr inbounds %struct.Curves16Data, ptr %12, i32 0, i32 1
  %14 = load i32, ptr %13, align 8
  %15 = icmp ult i32 %11, %14
  br i1 %15, label %16, label %39

16:                                               ; preds = %10
  %17 = load ptr, ptr %7, align 8
  %18 = getelementptr inbounds %struct.Curves16Data, ptr %17, i32 0, i32 3
  %19 = load ptr, ptr %18, align 8
  %20 = load i32, ptr %8, align 4
  %21 = zext i32 %20 to i64
  %22 = getelementptr inbounds ptr, ptr %19, i64 %21
  %23 = load ptr, ptr %22, align 8
  %24 = load ptr, ptr %4, align 8
  %25 = load i32, ptr %8, align 4
  %26 = zext i32 %25 to i64
  %27 = getelementptr inbounds i16, ptr %24, i64 %26
  %28 = load i16, ptr %27, align 2
  %29 = zext i16 %28 to i64
  %30 = getelementptr inbounds i16, ptr %23, i64 %29
  %31 = load i16, ptr %30, align 2
  %32 = load ptr, ptr %5, align 8
  %33 = load i32, ptr %8, align 4
  %34 = zext i32 %33 to i64
  %35 = getelementptr inbounds i16, ptr %32, i64 %34
  store i16 %31, ptr %35, align 2
  br label %36

36:                                               ; preds = %16
  %37 = load i32, ptr %8, align 4
  %38 = add i32 %37, 1
  store i32 %38, ptr %8, align 4
  br label %10, !llvm.loop !55

39:                                               ; preds = %10
  ret void
}